target datalayout = "e-m:e-p270:32:32-p271:32:32-p272:64:64-i64:64-i128:128-f80:128-n8:16:32:64-S128"
target triple = "x86_64-pc-linux-gnu"

%struct.NUTContext = type { ptr, ptr, [256 x %struct.FrameCode], [128 x i8], [128 x ptr], i64, ptr, ptr, i32, i32, i64, i64, i32, ptr, ptr, i32, i32, i64, ptr, i32, i32, i32 }
%struct.FrameCode = type { i16, i8, i16, i16, i16, i8, i8 }
%struct.Syncpoint = type { i64, i64, i64 }

; Function Attrs: nounwind uwtable
define i32 @ff_nut_add_sp(ptr noundef %0, i64 noundef %1, i64 noundef %2, i64 noundef %3) #0 {
  %5 = alloca i32, align 4
  %6 = alloca ptr, align 8
  %7 = alloca i64, align 8
  %8 = alloca i64, align 8
  %9 = alloca i64, align 8
  %10 = alloca ptr, align 8
  %11 = alloca ptr, align 8
  %12 = alloca i32, align 4
  store ptr %0, ptr %6, align 8, !tbaa !4
  store i64 %1, ptr %7, align 8, !tbaa !9
  store i64 %2, ptr %8, align 8, !tbaa !9
  store i64 %3, ptr %9, align 8, !tbaa !9
  call void @llvm.lifetime.start.p0(i64 8, ptr %10) #4
  %13 = call noalias ptr @av_mallocz(i64 noundef 24)
  store ptr %13, ptr %10, align 8, !tbaa !48
  call void @llvm.lifetime.start.p0(i64 8, ptr %11) #4
  %14 = call ptr @av_tree_node_alloc()
  store ptr %14, ptr %11, align 8, !tbaa !53
  %15 = load ptr, ptr %10, align 8, !tbaa !48
  %16 = icmp ne ptr %15, null
  br i1 %16, label %17, label %20

17:                                               ; preds = %4
  %18 = load ptr, ptr %11, align 8, !tbaa !53
  %19 = icmp ne ptr %18, null
  br i1 %19, label %21, label %20

20:                                               ; preds = %17, %4
  call void @av_freep(ptr noundef %10)
  call void @av_freep(ptr noundef %11)
  store i32 -12, ptr %5, align 4
  store i32 1, ptr %12, align 4
  br label %45

21:                                               ; preds = %17
  %22 = load ptr, ptr %6, align 8, !tbaa !4
  %23 = getelementptr inbounds nuw %struct.NUTContext, ptr %22, i32 0, i32 15
  %24 = load i32, ptr %23, align 8, !tbaa !54
  %25 = add nsw i32 %24, 1
  store i32 %25, ptr %23, align 8, !tbaa !54
  %26 = load i64, ptr %7, align 8, !tbaa !9
  %27 = load ptr, ptr %10, align 8, !tbaa !48
  %28 = getelementptr inbounds nuw %struct.Syncpoint, ptr %27, i32 0, i32 0
  store i64 %26, ptr %28, align 8, !tbaa !50
  %29 = load i64, ptr %8, align 8, !tbaa !9
  %30 = load ptr, ptr %10, align 8, !tbaa !48
  %31 = getelementptr inbounds nuw %struct.Syncpoint, ptr %30, i32 0, i32 1
  store i64 %29, ptr %31, align 8, !tbaa !55
  %32 = load i64, ptr %9, align 8, !tbaa !9
  %33 = load ptr, ptr %10, align 8, !tbaa !48
  %34 = getelementptr inbounds nuw %struct.Syncpoint, ptr %33, i32 0, i32 2
  store i64 %32, ptr %34, align 8, !tbaa !52
  %35 = load ptr, ptr %6, align 8, !tbaa !4
  %36 = getelementptr inbounds nuw %struct.NUTContext, ptr %35, i32 0, i32 14
  %37 = load ptr, ptr %10, align 8, !tbaa !48
  %38 = call ptr @av_tree_insert(ptr noundef %36, ptr noundef %37, ptr noundef @ff_nut_sp_pos_cmp, ptr noundef %11)
  %39 = load ptr, ptr %11, align 8, !tbaa !53
  %40 = icmp ne ptr %39, null
  br i1 %40, label %41, label %44

41:                                               ; preds = %21
  %42 = load ptr, ptr %10, align 8, !tbaa !48
  call void @av_free(ptr noundef %42)
  %43 = load ptr, ptr %11, align 8, !tbaa !53
  call void @av_free(ptr noundef %43)
  br label %44

44:                                               ; preds = %41, %21
  store i32 0, ptr %5, align 4
  store i32 1, ptr %12, align 4
  br label %45

45:                                               ; preds = %44, %20
  call void @llvm.lifetime.end.p0(i64 8, ptr %11) #4
  call void @llvm.lifetime.end.p0(i64 8, ptr %10) #4
  %46 = load i32, ptr %5, align 4
  ret i32 %46
}