; Function Attrs: nounwind uwtable
define range(i32 -12, 1) i32 @ff_nut_add_sp(ptr noundef %0, i64 noundef %1, i64 noundef %2, i64 noundef %3) local_unnamed_addr #4 {
  %5 = alloca ptr, align 8
  %6 = alloca ptr, align 8
  call void @llvm.lifetime.start.p0(i64 8, ptr nonnull %5) #7
  %7 = tail call noalias ptr @av_mallocz(i64 noundef 24) #7
  store ptr %7, ptr %5, align 8, !tbaa !45
  call void @llvm.lifetime.start.p0(i64 8, ptr nonnull %6) #7
  %8 = tail call ptr @av_tree_node_alloc() #7
  store ptr %8, ptr %6, align 8, !tbaa !47
  %9 = icmp ne ptr %7, null
  %10 = icmp ne ptr %8, null
  %or.cond = select i1 %9, i1 %10, i1 false
  br i1 %or.cond, label %12, label %11

11:                                               ; preds = %4
  call void @av_freep(ptr noundef nonnull %5) #7
  call void @av_freep(ptr noundef nonnull %6) #7
  br label %23

12:                                               ; preds = %4
  %13 = getelementptr inbounds nuw i8, ptr %0, i64 4312
  %14 = load i32, ptr %13, align 8, !tbaa !48
  %15 = add nsw i32 %14, 1
  store i32 %15, ptr %13, align 8, !tbaa !48
  store i64 %1, ptr %7, align 8, !tbaa !42
  %16 = getelementptr inbounds nuw i8, ptr %7, i64 8
  store i64 %2, ptr %16, align 8, !tbaa !49
  %17 = getelementptr inbounds nuw i8, ptr %7, i64 16
  store i64 %3, ptr %17, align 8, !tbaa !44
  %18 = getelementptr inbounds nuw i8, ptr %0, i64 4304
  %19 = call ptr @av_tree_insert(ptr noundef nonnull %18, ptr noundef nonnull %7, ptr noundef nonnull @ff_nut_sp_pos_cmp, ptr noundef nonnull %6) #7
  %20 = load ptr, ptr %6, align 8, !tbaa !47
  %.not = icmp eq ptr %20, null
  br i1 %.not, label %23, label %21

21:                                               ; preds = %12
  call void @av_free(ptr noundef nonnull %7) #7
  %22 = load ptr, ptr %6, align 8, !tbaa !47
  call void @av_free(ptr noundef %22) #7
  br label %23

23:                                               ; preds = %12, %21, %11
  %.0 = phi i32 [ -12, %11 ], [ 0, %21 ], [ 0, %12 ]
  call void @llvm.lifetime.end.p0(i64 8, ptr nonnull %6) #7
  call void @llvm.lifetime.end.p0(i64 8, ptr nonnull %5) #7
  ret i32 %.0
}